
output/rsa2048_driver.riscv:     file format elf64-littleriscv


Disassembly of section .text.init:

0000000080000000 <_start>:
    80000000:	0001e2b7          	lui	t0,0x1e
    80000004:	3002a073          	csrs	mstatus,t0
    80000008:	00100293          	li	t0,1
    8000000c:	01f29293          	slli	t0,t0,0x1f
    80000010:	0002d663          	bgez	t0,8000001c <_start+0x1c>
    80000014:	00100513          	li	a0,1
    80000018:	3810106f          	j	80001b98 <exit>
    8000001c:	00000297          	auipc	t0,0x0
    80000020:	01028293          	addi	t0,t0,16 # 8000002c <_start+0x2c>
    80000024:	30529073          	csrw	mtvec,t0
    80000028:	00301073          	fscsr	zero
    8000002c:	00000297          	auipc	t0,0x0
    80000030:	04028293          	addi	t0,t0,64 # 8000006c <trap_entry>
    80000034:	30529073          	csrw	mtvec,t0
    80000038:	00003197          	auipc	gp,0x3
    8000003c:	b4418193          	addi	gp,gp,-1212 # 80002b7c <__global_pointer$>
    80000040:	86318213          	addi	tp,gp,-1949 # 800023df <_end+0x3f>
    80000044:	fc027213          	andi	tp,tp,-64
    80000048:	f1402573          	csrr	a0,mhartid
    8000004c:	00100593          	li	a1,1
    80000050:	00b57063          	bgeu	a0,a1,80000050 <_start+0x50>
    80000054:	01151613          	slli	a2,a0,0x11
    80000058:	00c20233          	add	tp,tp,a2
    8000005c:	00150113          	addi	sp,a0,1
    80000060:	01111113          	slli	sp,sp,0x11
    80000064:	00410133          	add	sp,sp,tp
    80000068:	5010106f          	j	80001d68 <_init>

000000008000006c <trap_entry>:
    8000006c:	ef010113          	addi	sp,sp,-272
    80000070:	00113423          	sd	ra,8(sp)
    80000074:	00213823          	sd	sp,16(sp)
    80000078:	00313c23          	sd	gp,24(sp)
    8000007c:	02413023          	sd	tp,32(sp)
    80000080:	02513423          	sd	t0,40(sp)
    80000084:	02613823          	sd	t1,48(sp)
    80000088:	02713c23          	sd	t2,56(sp)
    8000008c:	04813023          	sd	s0,64(sp)
    80000090:	04913423          	sd	s1,72(sp)
    80000094:	04a13823          	sd	a0,80(sp)
    80000098:	04b13c23          	sd	a1,88(sp)
    8000009c:	06c13023          	sd	a2,96(sp)
    800000a0:	06d13423          	sd	a3,104(sp)
    800000a4:	06e13823          	sd	a4,112(sp)
    800000a8:	06f13c23          	sd	a5,120(sp)
    800000ac:	09013023          	sd	a6,128(sp)
    800000b0:	09113423          	sd	a7,136(sp)
    800000b4:	09213823          	sd	s2,144(sp)
    800000b8:	09313c23          	sd	s3,152(sp)
    800000bc:	0b413023          	sd	s4,160(sp)
    800000c0:	0b513423          	sd	s5,168(sp)
    800000c4:	0b613823          	sd	s6,176(sp)
    800000c8:	0b713c23          	sd	s7,184(sp)
    800000cc:	0d813023          	sd	s8,192(sp)
    800000d0:	0d913423          	sd	s9,200(sp)
    800000d4:	0da13823          	sd	s10,208(sp)
    800000d8:	0db13c23          	sd	s11,216(sp)
    800000dc:	0fc13023          	sd	t3,224(sp)
    800000e0:	0fd13423          	sd	t4,232(sp)
    800000e4:	0fe13823          	sd	t5,240(sp)
    800000e8:	0ff13c23          	sd	t6,248(sp)
    800000ec:	34202573          	csrr	a0,mcause
    800000f0:	341025f3          	csrr	a1,mepc
    800000f4:	00010613          	mv	a2,sp
    800000f8:	451010ef          	jal	ra,80001d48 <handle_trap>
    800000fc:	34151073          	csrw	mepc,a0
    80000100:	000022b7          	lui	t0,0x2
    80000104:	8002829b          	addiw	t0,t0,-2048
    80000108:	3002a073          	csrs	mstatus,t0
    8000010c:	00813083          	ld	ra,8(sp)
    80000110:	01013103          	ld	sp,16(sp)
    80000114:	01813183          	ld	gp,24(sp)
    80000118:	02013203          	ld	tp,32(sp)
    8000011c:	02813283          	ld	t0,40(sp)
    80000120:	03013303          	ld	t1,48(sp)
    80000124:	03813383          	ld	t2,56(sp)
    80000128:	04013403          	ld	s0,64(sp)
    8000012c:	04813483          	ld	s1,72(sp)
    80000130:	05013503          	ld	a0,80(sp)
    80000134:	05813583          	ld	a1,88(sp)
    80000138:	06013603          	ld	a2,96(sp)
    8000013c:	06813683          	ld	a3,104(sp)
    80000140:	07013703          	ld	a4,112(sp)
    80000144:	07813783          	ld	a5,120(sp)
    80000148:	08013803          	ld	a6,128(sp)
    8000014c:	08813883          	ld	a7,136(sp)
    80000150:	09013903          	ld	s2,144(sp)
    80000154:	09813983          	ld	s3,152(sp)
    80000158:	0a013a03          	ld	s4,160(sp)
    8000015c:	0a813a83          	ld	s5,168(sp)
    80000160:	0b013b03          	ld	s6,176(sp)
    80000164:	0b813b83          	ld	s7,184(sp)
    80000168:	0c013c03          	ld	s8,192(sp)
    8000016c:	0c813c83          	ld	s9,200(sp)
    80000170:	0d013d03          	ld	s10,208(sp)
    80000174:	0d813d83          	ld	s11,216(sp)
    80000178:	0e013e03          	ld	t3,224(sp)
    8000017c:	0e813e83          	ld	t4,232(sp)
    80000180:	0f013f03          	ld	t5,240(sp)
    80000184:	0f813f83          	ld	t6,248(sp)
    80000188:	11010113          	addi	sp,sp,272
    8000018c:	30200073          	mret

Disassembly of section .tohost:

0000000080001000 <tohost>:
	...

0000000080001040 <fromhost>:
	...

Disassembly of section .text:

0000000080001048 <pad_inp>:
    80001048:	04158613          	addi	a2,a1,65
    8000104c:	ff010113          	addi	sp,sp,-16
    80001050:	00965613          	srli	a2,a2,0x9
    80001054:	00160613          	addi	a2,a2,1
    80001058:	00813423          	sd	s0,8(sp)
    8000105c:	00913023          	sd	s1,0(sp)
    80001060:	03f5f313          	andi	t1,a1,63
    80001064:	00361813          	slli	a6,a2,0x3
    80001068:	0065d893          	srli	a7,a1,0x6
    8000106c:	04030663          	beqz	t1,800010b8 <pad_inp+0x70>
    80001070:	04000e93          	li	t4,64
    80001074:	406e8ebb          	subw	t4,t4,t1
    80001078:	00661613          	slli	a2,a2,0x6
    8000107c:	fff00f13          	li	t5,-1
    80001080:	00030f9b          	sext.w	t6,t1
    80001084:	01df1f33          	sll	t5,t5,t4
    80001088:	00050793          	mv	a5,a0
    8000108c:	00a60633          	add	a2,a2,a0
    80001090:	00000713          	li	a4,0
    80001094:	0007be03          	ld	t3,0(a5)
    80001098:	0007b683          	ld	a3,0(a5)
    8000109c:	01f75733          	srl	a4,a4,t6
    800010a0:	00878793          	addi	a5,a5,8
    800010a4:	01d696b3          	sll	a3,a3,t4
    800010a8:	00e6e733          	or	a4,a3,a4
    800010ac:	fee7bc23          	sd	a4,-8(a5)
    800010b0:	01ee7733          	and	a4,t3,t5
    800010b4:	fec790e3          	bne	a5,a2,80001094 <pad_inp+0x4c>
    800010b8:	000217b7          	lui	a5,0x21
    800010bc:	00389893          	slli	a7,a7,0x3
    800010c0:	00058f9b          	sext.w	t6,a1
    800010c4:	011508b3          	add	a7,a0,a7
    800010c8:	2c078023          	sb	zero,704(a5) # 212c0 <_tbss_end+0x212c0>
    800010cc:	ffe00693          	li	a3,-2
    800010d0:	04000713          	li	a4,64
    800010d4:	ffffc413          	not	s0,t6
    800010d8:	00000793          	li	a5,0
    800010dc:	04058f13          	addi	t5,a1,64
    800010e0:	fff80393          	addi	t2,a6,-1
    800010e4:	00021537          	lui	a0,0x21
    800010e8:	00100e93          	li	t4,1
    800010ec:	41f68fbb          	subw	t6,a3,t6
    800010f0:	ff888493          	addi	s1,a7,-8
    800010f4:	00800e13          	li	t3,8
    800010f8:	02e5e863          	bltu	a1,a4,80001128 <pad_inp+0xe0>
    800010fc:	00379693          	slli	a3,a5,0x3
    80001100:	08030063          	beqz	t1,80001180 <pad_inp+0x138>
    80001104:	40d886b3          	sub	a3,a7,a3
    80001108:	0006b683          	ld	a3,0(a3)
    8000110c:	20d53023          	sd	a3,512(a0) # 21200 <_tbss_end+0x21200>
    80001110:	00178793          	addi	a5,a5,1
    80001114:	04f80863          	beq	a6,a5,80001164 <pad_inp+0x11c>
    80001118:	0007869b          	sext.w	a3,a5
    8000111c:	05c68c63          	beq	a3,t3,80001174 <pad_inp+0x12c>
    80001120:	04070713          	addi	a4,a4,64
    80001124:	fce5fce3          	bgeu	a1,a4,800010fc <pad_inp+0xb4>
    80001128:	06ef6463          	bltu	t5,a4,80001190 <pad_inp+0x148>
    8000112c:	00379693          	slli	a3,a5,0x3
    80001130:	06030663          	beqz	t1,8000119c <pad_inp+0x154>
    80001134:	40d886b3          	sub	a3,a7,a3
    80001138:	0006b283          	ld	t0,0(a3)
    8000113c:	0087063b          	addw	a2,a4,s0
    80001140:	00ef86bb          	addw	a3,t6,a4
    80001144:	00ce9633          	sll	a2,t4,a2
    80001148:	00de96b3          	sll	a3,t4,a3
    8000114c:	00566633          	or	a2,a2,t0
    80001150:	40d006b3          	neg	a3,a3
    80001154:	00c6f6b3          	and	a3,a3,a2
    80001158:	20d53023          	sd	a3,512(a0)
    8000115c:	00178793          	addi	a5,a5,1
    80001160:	faf81ce3          	bne	a6,a5,80001118 <pad_inp+0xd0>
    80001164:	00813403          	ld	s0,8(sp)
    80001168:	00013483          	ld	s1,0(sp)
    8000116c:	01010113          	addi	sp,sp,16
    80001170:	00008067          	ret
    80001174:	2dd50023          	sb	t4,704(a0)
    80001178:	04070713          	addi	a4,a4,64
    8000117c:	fa9ff06f          	j	80001124 <pad_inp+0xdc>
    80001180:	40d486b3          	sub	a3,s1,a3
    80001184:	0006b683          	ld	a3,0(a3)
    80001188:	20d53023          	sd	a3,512(a0)
    8000118c:	f85ff06f          	j	80001110 <pad_inp+0xc8>
    80001190:	00f38c63          	beq	t2,a5,800011a8 <pad_inp+0x160>
    80001194:	20053023          	sd	zero,512(a0)
    80001198:	f79ff06f          	j	80001110 <pad_inp+0xc8>
    8000119c:	40d486b3          	sub	a3,s1,a3
    800011a0:	0006b283          	ld	t0,0(a3)
    800011a4:	f99ff06f          	j	8000113c <pad_inp+0xf4>
    800011a8:	20b53023          	sd	a1,512(a0)
    800011ac:	f65ff06f          	j	80001110 <pad_inp+0xc8>

00000000800011b0 <compute_hash>:
    800011b0:	ff010113          	addi	sp,sp,-16
    800011b4:	00813023          	sd	s0,0(sp)
    800011b8:	00058413          	mv	s0,a1
    800011bc:	00060593          	mv	a1,a2
    800011c0:	00113423          	sd	ra,8(sp)
    800011c4:	e85ff0ef          	jal	ra,80001048 <pad_inp>
    800011c8:	00021737          	lui	a4,0x21
    800011cc:	2c174783          	lbu	a5,705(a4) # 212c1 <_tbss_end+0x212c1>
    800011d0:	0ff7f793          	andi	a5,a5,255
    800011d4:	fe078ce3          	beqz	a5,800011cc <compute_hash+0x1c>
    800011d8:	28073783          	ld	a5,640(a4)
    800011dc:	00f43023          	sd	a5,0(s0)
    800011e0:	28073783          	ld	a5,640(a4)
    800011e4:	00f43423          	sd	a5,8(s0)
    800011e8:	28073783          	ld	a5,640(a4)
    800011ec:	00f43823          	sd	a5,16(s0)
    800011f0:	28073783          	ld	a5,640(a4)
    800011f4:	00f43c23          	sd	a5,24(s0)
    800011f8:	2c070023          	sb	zero,704(a4)
    800011fc:	00813083          	ld	ra,8(sp)
    80001200:	00013403          	ld	s0,0(sp)
    80001204:	01010113          	addi	sp,sp,16
    80001208:	00008067          	ret

000000008000120c <pad_v1_5>:
    8000120c:	00000793          	li	a5,0
    80001210:	04000713          	li	a4,64
    80001214:	00700313          	li	t1,7
    80001218:	fff00e13          	li	t3,-1
    8000121c:	00060f1b          	sext.w	t5,a2
    80001220:	00860e9b          	addiw	t4,a2,8
    80001224:	00860893          	addi	a7,a2,8
    80001228:	00679813          	slli	a6,a5,0x6
    8000122c:	02e66a63          	bltu	a2,a4,80001260 <pad_v1_5+0x54>
    80001230:	06c87c63          	bgeu	a6,a2,800012a8 <pad_v1_5+0x9c>
    80001234:	00379813          	slli	a6,a5,0x3
    80001238:	01050fb3          	add	t6,a0,a6
    8000123c:	000fbf83          	ld	t6,0(t6)
    80001240:	01058833          	add	a6,a1,a6
    80001244:	01f83023          	sd	t6,0(a6)
    80001248:	0007881b          	sext.w	a6,a5
    8000124c:	0e680663          	beq	a6,t1,80001338 <pad_v1_5+0x12c>
    80001250:	00178793          	addi	a5,a5,1
    80001254:	04070713          	addi	a4,a4,64
    80001258:	00679813          	slli	a6,a5,0x6
    8000125c:	fce67ae3          	bgeu	a2,a4,80001230 <pad_v1_5+0x24>
    80001260:	08e8fe63          	bgeu	a7,a4,800012fc <pad_v1_5+0xf0>
    80001264:	04c87463          	bgeu	a6,a2,800012ac <pad_v1_5+0xa0>
    80001268:	12678663          	beq	a5,t1,80001394 <pad_v1_5+0x188>
    8000126c:	00379293          	slli	t0,a5,0x3
    80001270:	40f0083b          	negw	a6,a5
    80001274:	00550fb3          	add	t6,a0,t0
    80001278:	0068181b          	slliw	a6,a6,0x6
    8000127c:	000fb383          	ld	t2,0(t6)
    80001280:	010f0fbb          	addw	t6,t5,a6
    80001284:	01fe1fb3          	sll	t6,t3,t6
    80001288:	ffffcf93          	not	t6,t6
    8000128c:	010e883b          	addw	a6,t4,a6
    80001290:	007fffb3          	and	t6,t6,t2
    80001294:	010e1833          	sll	a6,t3,a6
    80001298:	01f86833          	or	a6,a6,t6
    8000129c:	005582b3          	add	t0,a1,t0
    800012a0:	0102b023          	sd	a6,0(t0) # 2000 <_tbss_end+0x2000>
    800012a4:	fadff06f          	j	80001250 <pad_v1_5+0x44>
    800012a8:	fae60ce3          	beq	a2,a4,80001260 <pad_v1_5+0x54>
    800012ac:	05187e63          	bgeu	a6,a7,80001308 <pad_v1_5+0xfc>
    800012b0:	02c86463          	bltu	a6,a2,800012d8 <pad_v1_5+0xcc>
    800012b4:	07067463          	bgeu	a2,a6,8000131c <pad_v1_5+0x110>
    800012b8:	04080813          	addi	a6,a6,64
    800012bc:	09066063          	bltu	a2,a6,8000133c <pad_v1_5+0x130>
    800012c0:	f8c764e3          	bltu	a4,a2,80001248 <pad_v1_5+0x3c>
    800012c4:	06678063          	beq	a5,t1,80001324 <pad_v1_5+0x118>
    800012c8:	00379813          	slli	a6,a5,0x3
    800012cc:	01058833          	add	a6,a1,a6
    800012d0:	01c83023          	sd	t3,0(a6)
    800012d4:	f7dff06f          	j	80001250 <pad_v1_5+0x44>
    800012d8:	fce67ee3          	bgeu	a2,a4,800012b4 <pad_v1_5+0xa8>
    800012dc:	16678263          	beq	a5,t1,80001440 <pad_v1_5+0x234>
    800012e0:	0067981b          	slliw	a6,a5,0x6
    800012e4:	00379f93          	slli	t6,a5,0x3
    800012e8:	40c8083b          	subw	a6,a6,a2
    800012ec:	01f58fb3          	add	t6,a1,t6
    800012f0:	010e1833          	sll	a6,t3,a6
    800012f4:	010fb023          	sd	a6,0(t6)
    800012f8:	f59ff06f          	j	80001250 <pad_v1_5+0x44>
    800012fc:	fb1778e3          	bgeu	a4,a7,800012ac <pad_v1_5+0xa0>
    80001300:	06c86263          	bltu	a6,a2,80001364 <pad_v1_5+0x158>
    80001304:	fb1868e3          	bltu	a6,a7,800012b4 <pad_v1_5+0xa8>
    80001308:	01180863          	beq	a6,a7,80001318 <pad_v1_5+0x10c>
    8000130c:	f2c86ee3          	bltu	a6,a2,80001248 <pad_v1_5+0x3c>
    80001310:	f2c76ce3          	bltu	a4,a2,80001248 <pad_v1_5+0x3c>
    80001314:	fb1ff06f          	j	800012c4 <pad_v1_5+0xb8>
    80001318:	fb0664e3          	bltu	a2,a6,800012c0 <pad_v1_5+0xb4>
    8000131c:	fec768e3          	bltu	a4,a2,8000130c <pad_v1_5+0x100>
    80001320:	fa6794e3          	bne	a5,t1,800012c8 <pad_v1_5+0xbc>
    80001324:	0c069a63          	bnez	a3,800013f8 <pad_v1_5+0x1ec>
    80001328:	fff00793          	li	a5,-1
    8000132c:	00f7d793          	srli	a5,a5,0xf
    80001330:	02f5bc23          	sd	a5,56(a1)
    80001334:	00008067          	ret
    80001338:	00008067          	ret
    8000133c:	f86796e3          	bne	a5,t1,800012c8 <pad_v1_5+0xbc>
    80001340:	1c000793          	li	a5,448
    80001344:	40c7863b          	subw	a2,a5,a2
    80001348:	fff00793          	li	a5,-1
    8000134c:	00c79633          	sll	a2,a5,a2
    80001350:	0e069c63          	bnez	a3,80001448 <pad_v1_5+0x23c>
    80001354:	00f7d793          	srli	a5,a5,0xf
    80001358:	00f67633          	and	a2,a2,a5
    8000135c:	02c5bc23          	sd	a2,56(a1)
    80001360:	00008067          	ret
    80001364:	06679463          	bne	a5,t1,800013cc <pad_v1_5+0x1c0>
    80001368:	e406071b          	addiw	a4,a2,-448
    8000136c:	03853783          	ld	a5,56(a0)
    80001370:	fff00613          	li	a2,-1
    80001374:	00e61733          	sll	a4,a2,a4
    80001378:	fff74713          	not	a4,a4
    8000137c:	0a069463          	bnez	a3,80001424 <pad_v1_5+0x218>
    80001380:	00e7f7b3          	and	a5,a5,a4
    80001384:	00f65613          	srli	a2,a2,0xf
    80001388:	00c7f7b3          	and	a5,a5,a2
    8000138c:	02f5bc23          	sd	a5,56(a1)
    80001390:	00008067          	ret
    80001394:	fff00713          	li	a4,-1
    80001398:	e406079b          	addiw	a5,a2,-448
    8000139c:	03853503          	ld	a0,56(a0)
    800013a0:	00f717b3          	sll	a5,a4,a5
    800013a4:	fff7c793          	not	a5,a5
    800013a8:	e486061b          	addiw	a2,a2,-440
    800013ac:	00a7f7b3          	and	a5,a5,a0
    800013b0:	00c71633          	sll	a2,a4,a2
    800013b4:	00c7e7b3          	or	a5,a5,a2
    800013b8:	04069a63          	bnez	a3,8000140c <pad_v1_5+0x200>
    800013bc:	00f75713          	srli	a4,a4,0xf
    800013c0:	00e7f7b3          	and	a5,a5,a4
    800013c4:	02f5bc23          	sd	a5,56(a1)
    800013c8:	00008067          	ret
    800013cc:	00379f93          	slli	t6,a5,0x3
    800013d0:	01f502b3          	add	t0,a0,t6
    800013d4:	0067981b          	slliw	a6,a5,0x6
    800013d8:	0002b283          	ld	t0,0(t0)
    800013dc:	4106083b          	subw	a6,a2,a6
    800013e0:	010e1833          	sll	a6,t3,a6
    800013e4:	fff84813          	not	a6,a6
    800013e8:	00587833          	and	a6,a6,t0
    800013ec:	01f58fb3          	add	t6,a1,t6
    800013f0:	010fb023          	sd	a6,0(t6)
    800013f4:	e5dff06f          	j	80001250 <pad_v1_5+0x44>
    800013f8:	00300793          	li	a5,3
    800013fc:	03079793          	slli	a5,a5,0x30
    80001400:	fff78793          	addi	a5,a5,-1
    80001404:	02f5bc23          	sd	a5,56(a1)
    80001408:	00008067          	ret
    8000140c:	00300713          	li	a4,3
    80001410:	03071713          	slli	a4,a4,0x30
    80001414:	fff70713          	addi	a4,a4,-1
    80001418:	00e7f7b3          	and	a5,a5,a4
    8000141c:	02f5bc23          	sd	a5,56(a1)
    80001420:	00008067          	ret
    80001424:	00300693          	li	a3,3
    80001428:	00e7f7b3          	and	a5,a5,a4
    8000142c:	03069713          	slli	a4,a3,0x30
    80001430:	fff70713          	addi	a4,a4,-1
    80001434:	00e7f7b3          	and	a5,a5,a4
    80001438:	02f5bc23          	sd	a5,56(a1)
    8000143c:	00008067          	ret
    80001440:	f10660e3          	bltu	a2,a6,80001340 <pad_v1_5+0x134>
    80001444:	ee1ff06f          	j	80001324 <pad_v1_5+0x118>
    80001448:	00300793          	li	a5,3
    8000144c:	03079793          	slli	a5,a5,0x30
    80001450:	fff78793          	addi	a5,a5,-1
    80001454:	00f67633          	and	a2,a2,a5
    80001458:	02c5bc23          	sd	a2,56(a1)
    8000145c:	00008067          	ret

0000000080001460 <rsa2048_v1_5>:
    80001460:	f5010113          	addi	sp,sp,-176
    80001464:	00013023          	sd	zero,0(sp)
    80001468:	00013423          	sd	zero,8(sp)
    8000146c:	00013823          	sd	zero,16(sp)
    80001470:	00013c23          	sd	zero,24(sp)
    80001474:	02013023          	sd	zero,32(sp)
    80001478:	02013423          	sd	zero,40(sp)
    8000147c:	02013823          	sd	zero,48(sp)
    80001480:	0a813023          	sd	s0,160(sp)
    80001484:	08913c23          	sd	s1,152(sp)
    80001488:	09213823          	sd	s2,144(sp)
    8000148c:	09313423          	sd	s3,136(sp)
    80001490:	00070413          	mv	s0,a4
    80001494:	0a113423          	sd	ra,168(sp)
    80001498:	00000713          	li	a4,0
    8000149c:	04013023          	sd	zero,64(sp)
    800014a0:	04013423          	sd	zero,72(sp)
    800014a4:	04013823          	sd	zero,80(sp)
    800014a8:	04013c23          	sd	zero,88(sp)
    800014ac:	06013023          	sd	zero,96(sp)
    800014b0:	06013423          	sd	zero,104(sp)
    800014b4:	06013823          	sd	zero,112(sp)
    800014b8:	06013c23          	sd	zero,120(sp)
    800014bc:	02013c23          	sd	zero,56(sp)
    800014c0:	00100e13          	li	t3,1
    800014c4:	00060993          	mv	s3,a2
    800014c8:	00068493          	mv	s1,a3
    800014cc:	00080913          	mv	s2,a6
    800014d0:	00078613          	mv	a2,a5
    800014d4:	00088693          	mv	a3,a7
    800014d8:	00021337          	lui	t1,0x21
    800014dc:	00700e93          	li	t4,7
    800014e0:	0007081b          	sext.w	a6,a4
    800014e4:	00ee7c63          	bgeu	t3,a4,800014fc <rsa2048_v1_5+0x9c>
    800014e8:	32033023          	sd	zero,800(t1) # 21320 <_tbss_end+0x21320>
    800014ec:	03d80463          	beq	a6,t4,80001514 <rsa2048_v1_5+0xb4>
    800014f0:	00170713          	addi	a4,a4,1
    800014f4:	0007081b          	sext.w	a6,a4
    800014f8:	feee68e3          	bltu	t3,a4,800014e8 <rsa2048_v1_5+0x88>
    800014fc:	00371813          	slli	a6,a4,0x3
    80001500:	01058833          	add	a6,a1,a6
    80001504:	00083783          	ld	a5,0(a6)
    80001508:	00170713          	addi	a4,a4,1
    8000150c:	32f33023          	sd	a5,800(t1)
    80001510:	fe5ff06f          	j	800014f4 <rsa2048_v1_5+0x94>
    80001514:	00010593          	mv	a1,sp
    80001518:	cf5ff0ef          	jal	ra,8000120c <pad_v1_5>
    8000151c:	00100793          	li	a5,1
    80001520:	00021637          	lui	a2,0x21
    80001524:	00900693          	li	a3,9
    80001528:	00379713          	slli	a4,a5,0x3
    8000152c:	ff810593          	addi	a1,sp,-8
    80001530:	00e58733          	add	a4,a1,a4
    80001534:	00073703          	ld	a4,0(a4)
    80001538:	00178793          	addi	a5,a5,1
    8000153c:	30e63023          	sd	a4,768(a2) # 21300 <_tbss_end+0x21300>
    80001540:	fed794e3          	bne	a5,a3,80001528 <rsa2048_v1_5+0xc8>
    80001544:	00000793          	li	a5,0
    80001548:	04000693          	li	a3,64
    8000154c:	00021837          	lui	a6,0x21
    80001550:	fff00893          	li	a7,-1
    80001554:	04000613          	li	a2,64
    80001558:	0380006f          	j	80001590 <rsa2048_v1_5+0x130>
    8000155c:	0007871b          	sext.w	a4,a5
    80001560:	0037171b          	slliw	a4,a4,0x3
    80001564:	40e9073b          	subw	a4,s2,a4
    80001568:	00e89733          	sll	a4,a7,a4
    8000156c:	00f985b3          	add	a1,s3,a5
    80001570:	fff74713          	not	a4,a4
    80001574:	0b255463          	bge	a0,s2,8000161c <rsa2048_v1_5+0x1bc>
    80001578:	0005b583          	ld	a1,0(a1)
    8000157c:	00b77733          	and	a4,a4,a1
    80001580:	34e83023          	sd	a4,832(a6) # 21340 <_tbss_end+0x21340>
    80001584:	00878793          	addi	a5,a5,8
    80001588:	0406869b          	addiw	a3,a3,64
    8000158c:	02c78663          	beq	a5,a2,800015b8 <rsa2048_v1_5+0x158>
    80001590:	0037959b          	slliw	a1,a5,0x3
    80001594:	00058513          	mv	a0,a1
    80001598:	fcd942e3          	blt	s2,a3,8000155c <rsa2048_v1_5+0xfc>
    8000159c:	00f98733          	add	a4,s3,a5
    800015a0:	0725de63          	bge	a1,s2,8000161c <rsa2048_v1_5+0x1bc>
    800015a4:	00073703          	ld	a4,0(a4)
    800015a8:	00878793          	addi	a5,a5,8
    800015ac:	0406869b          	addiw	a3,a3,64
    800015b0:	34e83023          	sd	a4,832(a6)
    800015b4:	fcc79ee3          	bne	a5,a2,80001590 <rsa2048_v1_5+0x130>
    800015b8:	00048693          	mv	a3,s1
    800015bc:	04048613          	addi	a2,s1,64
    800015c0:	00021737          	lui	a4,0x21
    800015c4:	0006b783          	ld	a5,0(a3)
    800015c8:	00868693          	addi	a3,a3,8
    800015cc:	36f73023          	sd	a5,864(a4) # 21360 <_tbss_end+0x21360>
    800015d0:	fed61ae3          	bne	a2,a3,800015c4 <rsa2048_v1_5+0x164>
    800015d4:	00021737          	lui	a4,0x21
    800015d8:	3c074783          	lbu	a5,960(a4) # 213c0 <_tbss_end+0x213c0>
    800015dc:	0ff7f793          	andi	a5,a5,255
    800015e0:	fe078ce3          	beqz	a5,800015d8 <rsa2048_v1_5+0x178>
    800015e4:	00040713          	mv	a4,s0
    800015e8:	04040613          	addi	a2,s0,64
    800015ec:	000216b7          	lui	a3,0x21
    800015f0:	3806b783          	ld	a5,896(a3) # 21380 <_tbss_end+0x21380>
    800015f4:	00870713          	addi	a4,a4,8
    800015f8:	fef73c23          	sd	a5,-8(a4)
    800015fc:	fee61ae3          	bne	a2,a4,800015f0 <rsa2048_v1_5+0x190>
    80001600:	0a813083          	ld	ra,168(sp)
    80001604:	0a013403          	ld	s0,160(sp)
    80001608:	09813483          	ld	s1,152(sp)
    8000160c:	09013903          	ld	s2,144(sp)
    80001610:	08813983          	ld	s3,136(sp)
    80001614:	0b010113          	addi	sp,sp,176
    80001618:	00008067          	ret
    8000161c:	34083023          	sd	zero,832(a6)
    80001620:	f65ff06f          	j	80001584 <rsa2048_v1_5+0x124>

0000000080001624 <rsa2048_v1_5_verif>:
    80001624:	f7010113          	addi	sp,sp,-144
    80001628:	08813023          	sd	s0,128(sp)
    8000162c:	07313423          	sd	s3,104(sp)
    80001630:	00058413          	mv	s0,a1
    80001634:	00060993          	mv	s3,a2
    80001638:	00010593          	mv	a1,sp
    8000163c:	00078613          	mv	a2,a5
    80001640:	08113423          	sd	ra,136(sp)
    80001644:	06913c23          	sd	s1,120(sp)
    80001648:	07213823          	sd	s2,112(sp)
    8000164c:	07413023          	sd	s4,96(sp)
    80001650:	00070493          	mv	s1,a4
    80001654:	00068a13          	mv	s4,a3
    80001658:	00080913          	mv	s2,a6
    8000165c:	b55ff0ef          	jal	ra,800011b0 <compute_hash>
    80001660:	000a0613          	mv	a2,s4
    80001664:	00098593          	mv	a1,s3
    80001668:	00010513          	mv	a0,sp
    8000166c:	00090813          	mv	a6,s2
    80001670:	02010713          	addi	a4,sp,32
    80001674:	00048693          	mv	a3,s1
    80001678:	00000893          	li	a7,0
    8000167c:	10000793          	li	a5,256
    80001680:	de1ff0ef          	jal	ra,80001460 <rsa2048_v1_5>
    80001684:	02010593          	addi	a1,sp,32
    80001688:	00040513          	mv	a0,s0
    8000168c:	20000613          	li	a2,512
    80001690:	1a5000ef          	jal	ra,80002034 <memcmp>
    80001694:	08813083          	ld	ra,136(sp)
    80001698:	08013403          	ld	s0,128(sp)
    8000169c:	07813483          	ld	s1,120(sp)
    800016a0:	07013903          	ld	s2,112(sp)
    800016a4:	06813983          	ld	s3,104(sp)
    800016a8:	06013a03          	ld	s4,96(sp)
    800016ac:	09010113          	addi	sp,sp,144
    800016b0:	00008067          	ret

00000000800016b4 <rsa2048_v1_5_sign>:
    800016b4:	fb010113          	addi	sp,sp,-80
    800016b8:	04813023          	sd	s0,64(sp)
    800016bc:	02913c23          	sd	s1,56(sp)
    800016c0:	00058413          	mv	s0,a1
    800016c4:	00060493          	mv	s1,a2
    800016c8:	00010593          	mv	a1,sp
    800016cc:	00078613          	mv	a2,a5
    800016d0:	04113423          	sd	ra,72(sp)
    800016d4:	03213823          	sd	s2,48(sp)
    800016d8:	03313423          	sd	s3,40(sp)
    800016dc:	03413023          	sd	s4,32(sp)
    800016e0:	00068913          	mv	s2,a3
    800016e4:	00070993          	mv	s3,a4
    800016e8:	00080a13          	mv	s4,a6
    800016ec:	ac5ff0ef          	jal	ra,800011b0 <compute_hash>
    800016f0:	000a0813          	mv	a6,s4
    800016f4:	00098713          	mv	a4,s3
    800016f8:	00090693          	mv	a3,s2
    800016fc:	00048613          	mv	a2,s1
    80001700:	00040593          	mv	a1,s0
    80001704:	00010513          	mv	a0,sp
    80001708:	00000893          	li	a7,0
    8000170c:	10000793          	li	a5,256
    80001710:	d51ff0ef          	jal	ra,80001460 <rsa2048_v1_5>
    80001714:	04813083          	ld	ra,72(sp)
    80001718:	04013403          	ld	s0,64(sp)
    8000171c:	03813483          	ld	s1,56(sp)
    80001720:	03013903          	ld	s2,48(sp)
    80001724:	02813983          	ld	s3,40(sp)
    80001728:	02013a03          	ld	s4,32(sp)
    8000172c:	05010113          	addi	sp,sp,80
    80001730:	00008067          	ret

0000000080001734 <putchar>:
    80001734:	00011337          	lui	t1,0x11
    80001738:	3003031b          	addiw	t1,t1,768

000000008000173c <uart_status_simple>:
    8000173c:	00c30583          	lb	a1,12(t1) # 1100c <_tbss_end+0x1100c>
    80001740:	0025f593          	andi	a1,a1,2
    80001744:	fe058ce3          	beqz	a1,8000173c <uart_status_simple>
    80001748:	00a30223          	sb	a0,4(t1)
    8000174c:	00000513          	li	a0,0
    80001750:	00008067          	ret

0000000080001754 <vprintfmt>:
    80001754:	ea010113          	addi	sp,sp,-352
    80001758:	14813823          	sd	s0,336(sp)
    8000175c:	14913423          	sd	s1,328(sp)
    80001760:	15213023          	sd	s2,320(sp)
    80001764:	13513423          	sd	s5,296(sp)
    80001768:	13613023          	sd	s6,288(sp)
    8000176c:	11713c23          	sd	s7,280(sp)
    80001770:	14113c23          	sd	ra,344(sp)
    80001774:	13313c23          	sd	s3,312(sp)
    80001778:	13413823          	sd	s4,304(sp)
    8000177c:	11813823          	sd	s8,272(sp)
    80001780:	11913423          	sd	s9,264(sp)
    80001784:	11a13023          	sd	s10,256(sp)
    80001788:	00050913          	mv	s2,a0
    8000178c:	00058493          	mv	s1,a1
    80001790:	00060413          	mv	s0,a2
    80001794:	00068b13          	mv	s6,a3
    80001798:	02500a93          	li	s5,37
    8000179c:	00001b97          	auipc	s7,0x1
    800017a0:	a88b8b93          	addi	s7,s7,-1400 # 80002224 <main+0x19c>
    800017a4:	0140006f          	j	800017b8 <vprintfmt+0x64>
    800017a8:	06050063          	beqz	a0,80001808 <vprintfmt+0xb4>
    800017ac:	00048593          	mv	a1,s1
    800017b0:	00140413          	addi	s0,s0,1
    800017b4:	000900e7          	jalr	s2
    800017b8:	00044503          	lbu	a0,0(s0)
    800017bc:	ff5516e3          	bne	a0,s5,800017a8 <vprintfmt+0x54>
    800017c0:	00144683          	lbu	a3,1(s0)
    800017c4:	00140a13          	addi	s4,s0,1
    800017c8:	000a0713          	mv	a4,s4
    800017cc:	02000c93          	li	s9,32
    800017d0:	fff00993          	li	s3,-1
    800017d4:	fff00d13          	li	s10,-1
    800017d8:	00000513          	li	a0,0
    800017dc:	05500613          	li	a2,85
    800017e0:	00900593          	li	a1,9
    800017e4:	fdd6879b          	addiw	a5,a3,-35
    800017e8:	0ff7f793          	andi	a5,a5,255
    800017ec:	00170413          	addi	s0,a4,1
    800017f0:	06f66663          	bltu	a2,a5,8000185c <vprintfmt+0x108>
    800017f4:	00279793          	slli	a5,a5,0x2
    800017f8:	017787b3          	add	a5,a5,s7
    800017fc:	0007a783          	lw	a5,0(a5)
    80001800:	017787b3          	add	a5,a5,s7
    80001804:	00078067          	jr	a5
    80001808:	15813083          	ld	ra,344(sp)
    8000180c:	15013403          	ld	s0,336(sp)
    80001810:	14813483          	ld	s1,328(sp)
    80001814:	14013903          	ld	s2,320(sp)
    80001818:	13813983          	ld	s3,312(sp)
    8000181c:	13013a03          	ld	s4,304(sp)
    80001820:	12813a83          	ld	s5,296(sp)
    80001824:	12013b03          	ld	s6,288(sp)
    80001828:	11813b83          	ld	s7,280(sp)
    8000182c:	11013c03          	ld	s8,272(sp)
    80001830:	10813c83          	ld	s9,264(sp)
    80001834:	10013d03          	ld	s10,256(sp)
    80001838:	16010113          	addi	sp,sp,352
    8000183c:	00008067          	ret
    80001840:	00068c93          	mv	s9,a3
    80001844:	00174683          	lbu	a3,1(a4)
    80001848:	00040713          	mv	a4,s0
    8000184c:	00170413          	addi	s0,a4,1
    80001850:	fdd6879b          	addiw	a5,a3,-35
    80001854:	0ff7f793          	andi	a5,a5,255
    80001858:	f8f67ee3          	bgeu	a2,a5,800017f4 <vprintfmt+0xa0>
    8000185c:	00048593          	mv	a1,s1
    80001860:	02500513          	li	a0,37
    80001864:	000900e7          	jalr	s2
    80001868:	000a0413          	mv	s0,s4
    8000186c:	f4dff06f          	j	800017b8 <vprintfmt+0x64>
    80001870:	fd06899b          	addiw	s3,a3,-48
    80001874:	00174683          	lbu	a3,1(a4)
    80001878:	00040713          	mv	a4,s0
    8000187c:	fd06879b          	addiw	a5,a3,-48
    80001880:	0006881b          	sext.w	a6,a3
    80001884:	02f5e663          	bltu	a1,a5,800018b0 <vprintfmt+0x15c>
    80001888:	00174683          	lbu	a3,1(a4)
    8000188c:	0029979b          	slliw	a5,s3,0x2
    80001890:	013789bb          	addw	s3,a5,s3
    80001894:	0019999b          	slliw	s3,s3,0x1
    80001898:	010989bb          	addw	s3,s3,a6
    8000189c:	fd06879b          	addiw	a5,a3,-48
    800018a0:	00170713          	addi	a4,a4,1
    800018a4:	fd09899b          	addiw	s3,s3,-48
    800018a8:	0006881b          	sext.w	a6,a3
    800018ac:	fcf5fee3          	bgeu	a1,a5,80001888 <vprintfmt+0x134>
    800018b0:	f20d5ae3          	bgez	s10,800017e4 <vprintfmt+0x90>
    800018b4:	00098d13          	mv	s10,s3
    800018b8:	fff00993          	li	s3,-1
    800018bc:	f29ff06f          	j	800017e4 <vprintfmt+0x90>
    800018c0:	00174683          	lbu	a3,1(a4)
    800018c4:	00040713          	mv	a4,s0
    800018c8:	f1dff06f          	j	800017e4 <vprintfmt+0x90>
    800018cc:	00048593          	mv	a1,s1
    800018d0:	02500513          	li	a0,37
    800018d4:	000900e7          	jalr	s2
    800018d8:	ee1ff06f          	j	800017b8 <vprintfmt+0x64>
    800018dc:	000b2983          	lw	s3,0(s6)
    800018e0:	00174683          	lbu	a3,1(a4)
    800018e4:	008b0b13          	addi	s6,s6,8
    800018e8:	00040713          	mv	a4,s0
    800018ec:	fc5ff06f          	j	800018b0 <vprintfmt+0x15c>
    800018f0:	03000513          	li	a0,48
    800018f4:	00048593          	mv	a1,s1
    800018f8:	000900e7          	jalr	s2
    800018fc:	00048593          	mv	a1,s1
    80001900:	07800513          	li	a0,120
    80001904:	000900e7          	jalr	s2
    80001908:	008b0693          	addi	a3,s6,8
    8000190c:	01000713          	li	a4,16
    80001910:	000b3783          	ld	a5,0(s6)
    80001914:	00068b13          	mv	s6,a3
    80001918:	02e7f9b3          	remu	s3,a5,a4
    8000191c:	000c8c9b          	sext.w	s9,s9
    80001920:	00410693          	addi	a3,sp,4
    80001924:	00100c13          	li	s8,1
    80001928:	01312023          	sw	s3,0(sp)
    8000192c:	1ae7e663          	bltu	a5,a4,80001ad8 <vprintfmt+0x384>
    80001930:	02e7d7b3          	divu	a5,a5,a4
    80001934:	00468693          	addi	a3,a3,4
    80001938:	000c0a13          	mv	s4,s8
    8000193c:	001c0c1b          	addiw	s8,s8,1
    80001940:	02e7f9b3          	remu	s3,a5,a4
    80001944:	ff36ae23          	sw	s3,-4(a3)
    80001948:	fee7f4e3          	bgeu	a5,a4,80001930 <vprintfmt+0x1dc>
    8000194c:	01ac5e63          	bge	s8,s10,80001968 <vprintfmt+0x214>
    80001950:	000d0d1b          	sext.w	s10,s10
    80001954:	fffd0d1b          	addiw	s10,s10,-1
    80001958:	00048593          	mv	a1,s1
    8000195c:	000c8513          	mv	a0,s9
    80001960:	000900e7          	jalr	s2
    80001964:	ffac48e3          	blt	s8,s10,80001954 <vprintfmt+0x200>
    80001968:	002a1a13          	slli	s4,s4,0x2
    8000196c:	01410a33          	add	s4,sp,s4
    80001970:	00010c93          	mv	s9,sp
    80001974:	00900c13          	li	s8,9
    80001978:	00c0006f          	j	80001984 <vprintfmt+0x230>
    8000197c:	ffca2983          	lw	s3,-4(s4)
    80001980:	ffca0a13          	addi	s4,s4,-4
    80001984:	05700513          	li	a0,87
    80001988:	013c6463          	bltu	s8,s3,80001990 <vprintfmt+0x23c>
    8000198c:	03000513          	li	a0,48
    80001990:	00048593          	mv	a1,s1
    80001994:	0135053b          	addw	a0,a0,s3
    80001998:	000900e7          	jalr	s2
    8000199c:	ff9a10e3          	bne	s4,s9,8000197c <vprintfmt+0x228>
    800019a0:	e19ff06f          	j	800017b8 <vprintfmt+0x64>
    800019a4:	00100793          	li	a5,1
    800019a8:	008b0a13          	addi	s4,s6,8
    800019ac:	00a7c463          	blt	a5,a0,800019b4 <vprintfmt+0x260>
    800019b0:	12050c63          	beqz	a0,80001ae8 <vprintfmt+0x394>
    800019b4:	000b3983          	ld	s3,0(s6)
    800019b8:	1409c463          	bltz	s3,80001b00 <vprintfmt+0x3ac>
    800019bc:	00098793          	mv	a5,s3
    800019c0:	000a0b13          	mv	s6,s4
    800019c4:	00a00713          	li	a4,10
    800019c8:	f51ff06f          	j	80001918 <vprintfmt+0x1c4>
    800019cc:	00174683          	lbu	a3,1(a4)
    800019d0:	0015051b          	addiw	a0,a0,1
    800019d4:	00040713          	mv	a4,s0
    800019d8:	e0dff06f          	j	800017e4 <vprintfmt+0x90>
    800019dc:	01000713          	li	a4,16
    800019e0:	00100793          	li	a5,1
    800019e4:	008b0693          	addi	a3,s6,8
    800019e8:	f2a7c4e3          	blt	a5,a0,80001910 <vprintfmt+0x1bc>
    800019ec:	f20512e3          	bnez	a0,80001910 <vprintfmt+0x1bc>
    800019f0:	000b6783          	lwu	a5,0(s6)
    800019f4:	00068b13          	mv	s6,a3
    800019f8:	f21ff06f          	j	80001918 <vprintfmt+0x1c4>
    800019fc:	000b3a03          	ld	s4,0(s6)
    80001a00:	008b0b13          	addi	s6,s6,8
    80001a04:	100a0c63          	beqz	s4,80001b1c <vprintfmt+0x3c8>
    80001a08:	09a05863          	blez	s10,80001a98 <vprintfmt+0x344>
    80001a0c:	02d00793          	li	a5,45
    80001a10:	04fc9c63          	bne	s9,a5,80001a68 <vprintfmt+0x314>
    80001a14:	000a4503          	lbu	a0,0(s4)
    80001a18:	02050863          	beqz	a0,80001a48 <vprintfmt+0x2f4>
    80001a1c:	fff00c13          	li	s8,-1
    80001a20:	0009c663          	bltz	s3,80001a2c <vprintfmt+0x2d8>
    80001a24:	fff9899b          	addiw	s3,s3,-1
    80001a28:	01898e63          	beq	s3,s8,80001a44 <vprintfmt+0x2f0>
    80001a2c:	00048593          	mv	a1,s1
    80001a30:	001a0a13          	addi	s4,s4,1
    80001a34:	000900e7          	jalr	s2
    80001a38:	000a4503          	lbu	a0,0(s4)
    80001a3c:	fffd0d1b          	addiw	s10,s10,-1
    80001a40:	fe0510e3          	bnez	a0,80001a20 <vprintfmt+0x2cc>
    80001a44:	d7a05ae3          	blez	s10,800017b8 <vprintfmt+0x64>
    80001a48:	fffd0d1b          	addiw	s10,s10,-1
    80001a4c:	00048593          	mv	a1,s1
    80001a50:	02000513          	li	a0,32
    80001a54:	000900e7          	jalr	s2
    80001a58:	fe0d18e3          	bnez	s10,80001a48 <vprintfmt+0x2f4>
    80001a5c:	d5dff06f          	j	800017b8 <vprintfmt+0x64>
    80001a60:	00000a17          	auipc	s4,0x0
    80001a64:	748a0a13          	addi	s4,s4,1864 # 800021a8 <main+0x120>
    80001a68:	000d061b          	sext.w	a2,s10
    80001a6c:	000a0793          	mv	a5,s4
    80001a70:	013a06b3          	add	a3,s4,s3
    80001a74:	00099863          	bnez	s3,80001a84 <vprintfmt+0x330>
    80001a78:	0c40006f          	j	80001b3c <vprintfmt+0x3e8>
    80001a7c:	00178793          	addi	a5,a5,1
    80001a80:	00d78663          	beq	a5,a3,80001a8c <vprintfmt+0x338>
    80001a84:	0007c703          	lbu	a4,0(a5)
    80001a88:	fe071ae3          	bnez	a4,80001a7c <vprintfmt+0x328>
    80001a8c:	41478d33          	sub	s10,a5,s4
    80001a90:	41a60d3b          	subw	s10,a2,s10
    80001a94:	0ba04463          	bgtz	s10,80001b3c <vprintfmt+0x3e8>
    80001a98:	000a4503          	lbu	a0,0(s4)
    80001a9c:	d0050ee3          	beqz	a0,800017b8 <vprintfmt+0x64>
    80001aa0:	fff00c13          	li	s8,-1
    80001aa4:	f7dff06f          	j	80001a20 <vprintfmt+0x2cc>
    80001aa8:	fffd4793          	not	a5,s10
    80001aac:	43f7d793          	srai	a5,a5,0x3f
    80001ab0:	00fd7d33          	and	s10,s10,a5
    80001ab4:	00174683          	lbu	a3,1(a4)
    80001ab8:	000d0d1b          	sext.w	s10,s10
    80001abc:	00040713          	mv	a4,s0
    80001ac0:	d25ff06f          	j	800017e4 <vprintfmt+0x90>
    80001ac4:	000b2503          	lw	a0,0(s6)
    80001ac8:	00048593          	mv	a1,s1
    80001acc:	008b0b13          	addi	s6,s6,8
    80001ad0:	000900e7          	jalr	s2
    80001ad4:	ce5ff06f          	j	800017b8 <vprintfmt+0x64>
    80001ad8:	00100793          	li	a5,1
    80001adc:	00000a13          	li	s4,0
    80001ae0:	e7a7c8e3          	blt	a5,s10,80001950 <vprintfmt+0x1fc>
    80001ae4:	e85ff06f          	j	80001968 <vprintfmt+0x214>
    80001ae8:	000b2983          	lw	s3,0(s6)
    80001aec:	ecdff06f          	j	800019b8 <vprintfmt+0x264>
    80001af0:	00800713          	li	a4,8
    80001af4:	eedff06f          	j	800019e0 <vprintfmt+0x28c>
    80001af8:	00a00713          	li	a4,10
    80001afc:	ee5ff06f          	j	800019e0 <vprintfmt+0x28c>
    80001b00:	00048593          	mv	a1,s1
    80001b04:	02d00513          	li	a0,45
    80001b08:	000900e7          	jalr	s2
    80001b0c:	000a0b13          	mv	s6,s4
    80001b10:	413007b3          	neg	a5,s3
    80001b14:	00a00713          	li	a4,10
    80001b18:	e01ff06f          	j	80001918 <vprintfmt+0x1c4>
    80001b1c:	03a05e63          	blez	s10,80001b58 <vprintfmt+0x404>
    80001b20:	02d00793          	li	a5,45
    80001b24:	f2fc9ee3          	bne	s9,a5,80001a60 <vprintfmt+0x30c>
    80001b28:	02800513          	li	a0,40
    80001b2c:	00000a17          	auipc	s4,0x0
    80001b30:	67ca0a13          	addi	s4,s4,1660 # 800021a8 <main+0x120>
    80001b34:	fff00c13          	li	s8,-1
    80001b38:	ee9ff06f          	j	80001a20 <vprintfmt+0x2cc>
    80001b3c:	000c8c9b          	sext.w	s9,s9
    80001b40:	fffd0d1b          	addiw	s10,s10,-1
    80001b44:	00048593          	mv	a1,s1
    80001b48:	000c8513          	mv	a0,s9
    80001b4c:	000900e7          	jalr	s2
    80001b50:	fe0d18e3          	bnez	s10,80001b40 <vprintfmt+0x3ec>
    80001b54:	f45ff06f          	j	80001a98 <vprintfmt+0x344>
    80001b58:	00000a17          	auipc	s4,0x0
    80001b5c:	650a0a13          	addi	s4,s4,1616 # 800021a8 <main+0x120>
    80001b60:	02800513          	li	a0,40
    80001b64:	fff00c13          	li	s8,-1
    80001b68:	eb9ff06f          	j	80001a20 <vprintfmt+0x2cc>

0000000080001b6c <sprintf_putch.3080>:
    80001b6c:	0005b783          	ld	a5,0(a1)
    80001b70:	00a78023          	sb	a0,0(a5)
    80001b74:	0005b783          	ld	a5,0(a1)
    80001b78:	00178793          	addi	a5,a5,1
    80001b7c:	00f5b023          	sd	a5,0(a1)
    80001b80:	00008067          	ret

0000000080001b84 <tohost_exit>:
    80001b84:	00151793          	slli	a5,a0,0x1
    80001b88:	0017e793          	ori	a5,a5,1
    80001b8c:	fffff717          	auipc	a4,0xfffff
    80001b90:	46f73a23          	sd	a5,1140(a4) # 80001000 <tohost>
    80001b94:	0000006f          	j	80001b94 <tohost_exit+0x10>

0000000080001b98 <exit>:
    80001b98:	00011337          	lui	t1,0x11
    80001b9c:	3003031b          	addiw	t1,t1,768
    80001ba0:	00c30503          	lb	a0,12(t1) # 1100c <_tbss_end+0x1100c>
    80001ba4:	00157513          	andi	a0,a0,1
    80001ba8:	fe0508e3          	beqz	a0,80001b98 <exit>
    80001bac:	00020537          	lui	a0,0x20
    80001bb0:	00a52623          	sw	a0,12(a0) # 2000c <_tbss_end+0x2000c>
    80001bb4:	0000006f          	j	80001bb4 <exit+0x1c>

0000000080001bb8 <setStats>:
    80001bb8:	b0002773          	csrr	a4,mcycle
    80001bbc:	00000797          	auipc	a5,0x0
    80001bc0:	7c478793          	addi	a5,a5,1988 # 80002380 <counters>
    80001bc4:	00051c63          	bnez	a0,80001bdc <setStats+0x24>
    80001bc8:	0007b683          	ld	a3,0(a5)
    80001bcc:	00000617          	auipc	a2,0x0
    80001bd0:	5e460613          	addi	a2,a2,1508 # 800021b0 <main+0x128>
    80001bd4:	00c7b823          	sd	a2,16(a5)
    80001bd8:	40d70733          	sub	a4,a4,a3
    80001bdc:	00e7b023          	sd	a4,0(a5)
    80001be0:	b0202773          	csrr	a4,minstret
    80001be4:	00051c63          	bnez	a0,80001bfc <setStats+0x44>
    80001be8:	0087b683          	ld	a3,8(a5)
    80001bec:	00000617          	auipc	a2,0x0
    80001bf0:	5cc60613          	addi	a2,a2,1484 # 800021b8 <main+0x130>
    80001bf4:	00c7bc23          	sd	a2,24(a5)
    80001bf8:	40d70733          	sub	a4,a4,a3
    80001bfc:	00e7b423          	sd	a4,8(a5)
    80001c00:	00008067          	ret

0000000080001c04 <abort>:
    80001c04:	ff010113          	addi	sp,sp,-16
    80001c08:	00113423          	sd	ra,8(sp)
    80001c0c:	f8dff0ef          	jal	ra,80001b98 <exit>

0000000080001c10 <printstr>:
    80001c10:	00054783          	lbu	a5,0(a0)
    80001c14:	f9010113          	addi	sp,sp,-112
    80001c18:	03f10693          	addi	a3,sp,63
    80001c1c:	fc06f693          	andi	a3,a3,-64
    80001c20:	06078263          	beqz	a5,80001c84 <printstr+0x74>
    80001c24:	00050793          	mv	a5,a0
    80001c28:	0017c703          	lbu	a4,1(a5)
    80001c2c:	00178793          	addi	a5,a5,1
    80001c30:	fe071ce3          	bnez	a4,80001c28 <printstr+0x18>
    80001c34:	40a787b3          	sub	a5,a5,a0
    80001c38:	04000713          	li	a4,64
    80001c3c:	00e6b023          	sd	a4,0(a3)
    80001c40:	00100713          	li	a4,1
    80001c44:	00e6b423          	sd	a4,8(a3)
    80001c48:	00a6b823          	sd	a0,16(a3)
    80001c4c:	00f6bc23          	sd	a5,24(a3)
    80001c50:	0ff0000f          	fence
    80001c54:	fffff717          	auipc	a4,0xfffff
    80001c58:	3ec70713          	addi	a4,a4,1004 # 80001040 <fromhost>
    80001c5c:	fffff797          	auipc	a5,0xfffff
    80001c60:	3ad7b223          	sd	a3,932(a5) # 80001000 <tohost>
    80001c64:	00073783          	ld	a5,0(a4)
    80001c68:	fe078ee3          	beqz	a5,80001c64 <printstr+0x54>
    80001c6c:	fffff797          	auipc	a5,0xfffff
    80001c70:	3c07ba23          	sd	zero,980(a5) # 80001040 <fromhost>
    80001c74:	0ff0000f          	fence
    80001c78:	0006b783          	ld	a5,0(a3)
    80001c7c:	07010113          	addi	sp,sp,112
    80001c80:	00008067          	ret
    80001c84:	00000793          	li	a5,0
    80001c88:	fb1ff06f          	j	80001c38 <printstr+0x28>

0000000080001c8c <thread_entry>:
    80001c8c:	00051063          	bnez	a0,80001c8c <thread_entry>
    80001c90:	00008067          	ret

0000000080001c94 <printhex>:
    80001c94:	fd010113          	addi	sp,sp,-48
    80001c98:	00050793          	mv	a5,a0
    80001c9c:	02113423          	sd	ra,40(sp)
    80001ca0:	00810513          	addi	a0,sp,8
    80001ca4:	01710613          	addi	a2,sp,23
    80001ca8:	00900813          	li	a6,9
    80001cac:	0080006f          	j	80001cb4 <printhex+0x20>
    80001cb0:	00070613          	mv	a2,a4
    80001cb4:	00f7f693          	andi	a3,a5,15
    80001cb8:	00068713          	mv	a4,a3
    80001cbc:	03000593          	li	a1,48
    80001cc0:	00d87463          	bgeu	a6,a3,80001cc8 <printhex+0x34>
    80001cc4:	05700593          	li	a1,87
    80001cc8:	00b7073b          	addw	a4,a4,a1
    80001ccc:	00e60023          	sb	a4,0(a2)
    80001cd0:	0047d793          	srli	a5,a5,0x4
    80001cd4:	fff60713          	addi	a4,a2,-1
    80001cd8:	fcc51ce3          	bne	a0,a2,80001cb0 <printhex+0x1c>
    80001cdc:	00010c23          	sb	zero,24(sp)
    80001ce0:	f31ff0ef          	jal	ra,80001c10 <printstr>
    80001ce4:	02813083          	ld	ra,40(sp)
    80001ce8:	03010113          	addi	sp,sp,48
    80001cec:	00008067          	ret

0000000080001cf0 <printf>:
    80001cf0:	fa010113          	addi	sp,sp,-96
    80001cf4:	02810313          	addi	t1,sp,40
    80001cf8:	00050e13          	mv	t3,a0
    80001cfc:	02b13423          	sd	a1,40(sp)
    80001d00:	02c13823          	sd	a2,48(sp)
    80001d04:	02d13c23          	sd	a3,56(sp)
    80001d08:	00000517          	auipc	a0,0x0
    80001d0c:	a2c50513          	addi	a0,a0,-1492 # 80001734 <putchar>
    80001d10:	00030693          	mv	a3,t1
    80001d14:	000e0613          	mv	a2,t3
    80001d18:	00000593          	li	a1,0
    80001d1c:	00113c23          	sd	ra,24(sp)
    80001d20:	04e13023          	sd	a4,64(sp)
    80001d24:	04f13423          	sd	a5,72(sp)
    80001d28:	05013823          	sd	a6,80(sp)
    80001d2c:	05113c23          	sd	a7,88(sp)
    80001d30:	00613423          	sd	t1,8(sp)
    80001d34:	a21ff0ef          	jal	ra,80001754 <vprintfmt>
    80001d38:	01813083          	ld	ra,24(sp)
    80001d3c:	00000513          	li	a0,0
    80001d40:	06010113          	addi	sp,sp,96
    80001d44:	00008067          	ret

0000000080001d48 <handle_trap>:
    80001d48:	ff010113          	addi	sp,sp,-16
    80001d4c:	00058613          	mv	a2,a1
    80001d50:	00050593          	mv	a1,a0
    80001d54:	00000517          	auipc	a0,0x0
    80001d58:	48c50513          	addi	a0,a0,1164 # 800021e0 <main+0x158>
    80001d5c:	00113423          	sd	ra,8(sp)
    80001d60:	f91ff0ef          	jal	ra,80001cf0 <printf>
    80001d64:	e35ff0ef          	jal	ra,80001b98 <exit>

0000000080001d68 <_init>:
    80001d68:	fe010113          	addi	sp,sp,-32
    80001d6c:	00000593          	li	a1,0
    80001d70:	00000513          	li	a0,0
    80001d74:	00813823          	sd	s0,16(sp)
    80001d78:	00913423          	sd	s1,8(sp)
    80001d7c:	00113c23          	sd	ra,24(sp)
    80001d80:	00000497          	auipc	s1,0x0
    80001d84:	60048493          	addi	s1,s1,1536 # 80002380 <counters>
    80001d88:	300000ef          	jal	ra,80002088 <main>
    80001d8c:	0004b603          	ld	a2,0(s1)
    80001d90:	00050413          	mv	s0,a0
    80001d94:	00061a63          	bnez	a2,80001da8 <_init+0x40>
    80001d98:	0084b603          	ld	a2,8(s1)
    80001d9c:	02061063          	bnez	a2,80001dbc <_init+0x54>
    80001da0:	00040513          	mv	a0,s0
    80001da4:	df5ff0ef          	jal	ra,80001b98 <exit>
    80001da8:	0104b583          	ld	a1,16(s1)
    80001dac:	00000517          	auipc	a0,0x0
    80001db0:	46c50513          	addi	a0,a0,1132 # 80002218 <main+0x190>
    80001db4:	f3dff0ef          	jal	ra,80001cf0 <printf>
    80001db8:	fe1ff06f          	j	80001d98 <_init+0x30>
    80001dbc:	0184b583          	ld	a1,24(s1)
    80001dc0:	00000517          	auipc	a0,0x0
    80001dc4:	45850513          	addi	a0,a0,1112 # 80002218 <main+0x190>
    80001dc8:	f29ff0ef          	jal	ra,80001cf0 <printf>
    80001dcc:	fd5ff06f          	j	80001da0 <_init+0x38>

0000000080001dd0 <sprintf>:
    80001dd0:	fa010113          	addi	sp,sp,-96
    80001dd4:	03010313          	addi	t1,sp,48
    80001dd8:	02813023          	sd	s0,32(sp)
    80001ddc:	00a13423          	sd	a0,8(sp)
    80001de0:	02c13823          	sd	a2,48(sp)
    80001de4:	02d13c23          	sd	a3,56(sp)
    80001de8:	00050413          	mv	s0,a0
    80001dec:	00058613          	mv	a2,a1
    80001df0:	00000517          	auipc	a0,0x0
    80001df4:	d7c50513          	addi	a0,a0,-644 # 80001b6c <sprintf_putch.3080>
    80001df8:	00810593          	addi	a1,sp,8
    80001dfc:	00030693          	mv	a3,t1
    80001e00:	02113423          	sd	ra,40(sp)
    80001e04:	04f13423          	sd	a5,72(sp)
    80001e08:	04e13023          	sd	a4,64(sp)
    80001e0c:	05013823          	sd	a6,80(sp)
    80001e10:	05113c23          	sd	a7,88(sp)
    80001e14:	00613c23          	sd	t1,24(sp)
    80001e18:	93dff0ef          	jal	ra,80001754 <vprintfmt>
    80001e1c:	00813783          	ld	a5,8(sp)
    80001e20:	00078023          	sb	zero,0(a5)
    80001e24:	00813503          	ld	a0,8(sp)
    80001e28:	02813083          	ld	ra,40(sp)
    80001e2c:	4085053b          	subw	a0,a0,s0
    80001e30:	02013403          	ld	s0,32(sp)
    80001e34:	06010113          	addi	sp,sp,96
    80001e38:	00008067          	ret

0000000080001e3c <memcpy>:
    80001e3c:	00c5e7b3          	or	a5,a1,a2
    80001e40:	00f567b3          	or	a5,a0,a5
    80001e44:	0077f793          	andi	a5,a5,7
    80001e48:	00c506b3          	add	a3,a0,a2
    80001e4c:	02078463          	beqz	a5,80001e74 <memcpy+0x38>
    80001e50:	00c58633          	add	a2,a1,a2
    80001e54:	00050793          	mv	a5,a0
    80001e58:	02d57e63          	bgeu	a0,a3,80001e94 <memcpy+0x58>
    80001e5c:	0005c703          	lbu	a4,0(a1)
    80001e60:	00158593          	addi	a1,a1,1
    80001e64:	00178793          	addi	a5,a5,1
    80001e68:	fee78fa3          	sb	a4,-1(a5)
    80001e6c:	fec598e3          	bne	a1,a2,80001e5c <memcpy+0x20>
    80001e70:	00008067          	ret
    80001e74:	fed57ee3          	bgeu	a0,a3,80001e70 <memcpy+0x34>
    80001e78:	00050793          	mv	a5,a0
    80001e7c:	0005b703          	ld	a4,0(a1)
    80001e80:	00878793          	addi	a5,a5,8
    80001e84:	00858593          	addi	a1,a1,8
    80001e88:	fee7bc23          	sd	a4,-8(a5)
    80001e8c:	fed7e8e3          	bltu	a5,a3,80001e7c <memcpy+0x40>
    80001e90:	00008067          	ret
    80001e94:	00008067          	ret

0000000080001e98 <memset>:
    80001e98:	00c567b3          	or	a5,a0,a2
    80001e9c:	0077f793          	andi	a5,a5,7
    80001ea0:	00c50633          	add	a2,a0,a2
    80001ea4:	0ff5f593          	andi	a1,a1,255
    80001ea8:	00078e63          	beqz	a5,80001ec4 <memset+0x2c>
    80001eac:	00050793          	mv	a5,a0
    80001eb0:	04c57263          	bgeu	a0,a2,80001ef4 <memset+0x5c>
    80001eb4:	00178793          	addi	a5,a5,1
    80001eb8:	feb78fa3          	sb	a1,-1(a5)
    80001ebc:	fef61ce3          	bne	a2,a5,80001eb4 <memset+0x1c>
    80001ec0:	00008067          	ret
    80001ec4:	00859793          	slli	a5,a1,0x8
    80001ec8:	00b7e5b3          	or	a1,a5,a1
    80001ecc:	01059793          	slli	a5,a1,0x10
    80001ed0:	00b7e7b3          	or	a5,a5,a1
    80001ed4:	02079593          	slli	a1,a5,0x20
    80001ed8:	00f5e5b3          	or	a1,a1,a5
    80001edc:	fec572e3          	bgeu	a0,a2,80001ec0 <memset+0x28>
    80001ee0:	00050793          	mv	a5,a0
    80001ee4:	00878793          	addi	a5,a5,8
    80001ee8:	feb7bc23          	sd	a1,-8(a5)
    80001eec:	fec7ece3          	bltu	a5,a2,80001ee4 <memset+0x4c>
    80001ef0:	00008067          	ret
    80001ef4:	00008067          	ret

0000000080001ef8 <strlen>:
    80001ef8:	00054783          	lbu	a5,0(a0)
    80001efc:	00078e63          	beqz	a5,80001f18 <strlen+0x20>
    80001f00:	00050793          	mv	a5,a0
    80001f04:	0017c703          	lbu	a4,1(a5)
    80001f08:	00178793          	addi	a5,a5,1
    80001f0c:	fe071ce3          	bnez	a4,80001f04 <strlen+0xc>
    80001f10:	40a78533          	sub	a0,a5,a0
    80001f14:	00008067          	ret
    80001f18:	00000513          	li	a0,0
    80001f1c:	00008067          	ret

0000000080001f20 <strnlen>:
    80001f20:	00050613          	mv	a2,a0
    80001f24:	00b606b3          	add	a3,a2,a1
    80001f28:	00058513          	mv	a0,a1
    80001f2c:	00060793          	mv	a5,a2
    80001f30:	00059863          	bnez	a1,80001f40 <strnlen+0x20>
    80001f34:	01c0006f          	j	80001f50 <strnlen+0x30>
    80001f38:	00178793          	addi	a5,a5,1
    80001f3c:	00f68863          	beq	a3,a5,80001f4c <strnlen+0x2c>
    80001f40:	0007c703          	lbu	a4,0(a5)
    80001f44:	fe071ae3          	bnez	a4,80001f38 <strnlen+0x18>
    80001f48:	40c78533          	sub	a0,a5,a2
    80001f4c:	00008067          	ret
    80001f50:	00008067          	ret

0000000080001f54 <strcmp>:
    80001f54:	00054783          	lbu	a5,0(a0)
    80001f58:	00158593          	addi	a1,a1,1
    80001f5c:	00150513          	addi	a0,a0,1
    80001f60:	fff5c703          	lbu	a4,-1(a1)
    80001f64:	00078a63          	beqz	a5,80001f78 <strcmp+0x24>
    80001f68:	fee786e3          	beq	a5,a4,80001f54 <strcmp>
    80001f6c:	0007851b          	sext.w	a0,a5
    80001f70:	40e5053b          	subw	a0,a0,a4
    80001f74:	00008067          	ret
    80001f78:	00000513          	li	a0,0
    80001f7c:	ff5ff06f          	j	80001f70 <strcmp+0x1c>

0000000080001f80 <strcpy>:
    80001f80:	00050793          	mv	a5,a0
    80001f84:	0005c703          	lbu	a4,0(a1)
    80001f88:	00178793          	addi	a5,a5,1
    80001f8c:	00158593          	addi	a1,a1,1
    80001f90:	fee78fa3          	sb	a4,-1(a5)
    80001f94:	fe0718e3          	bnez	a4,80001f84 <strcpy+0x4>
    80001f98:	00008067          	ret

0000000080001f9c <atol>:
    80001f9c:	00054703          	lbu	a4,0(a0)
    80001fa0:	02000693          	li	a3,32
    80001fa4:	00050793          	mv	a5,a0
    80001fa8:	00d71863          	bne	a4,a3,80001fb8 <atol+0x1c>
    80001fac:	0017c703          	lbu	a4,1(a5)
    80001fb0:	00178793          	addi	a5,a5,1
    80001fb4:	fed70ce3          	beq	a4,a3,80001fac <atol+0x10>
    80001fb8:	02d00693          	li	a3,45
    80001fbc:	06d70063          	beq	a4,a3,8000201c <atol+0x80>
    80001fc0:	02b00693          	li	a3,43
    80001fc4:	04d70063          	beq	a4,a3,80002004 <atol+0x68>
    80001fc8:	0007c683          	lbu	a3,0(a5)
    80001fcc:	00000593          	li	a1,0
    80001fd0:	04068263          	beqz	a3,80002014 <atol+0x78>
    80001fd4:	00000513          	li	a0,0
    80001fd8:	00178793          	addi	a5,a5,1
    80001fdc:	fd06861b          	addiw	a2,a3,-48
    80001fe0:	00251713          	slli	a4,a0,0x2
    80001fe4:	0007c683          	lbu	a3,0(a5)
    80001fe8:	00a70533          	add	a0,a4,a0
    80001fec:	00151513          	slli	a0,a0,0x1
    80001ff0:	00a60533          	add	a0,a2,a0
    80001ff4:	fe0692e3          	bnez	a3,80001fd8 <atol+0x3c>
    80001ff8:	02058063          	beqz	a1,80002018 <atol+0x7c>
    80001ffc:	40a00533          	neg	a0,a0
    80002000:	00008067          	ret
    80002004:	0017c683          	lbu	a3,1(a5)
    80002008:	00000593          	li	a1,0
    8000200c:	00178793          	addi	a5,a5,1
    80002010:	fc0692e3          	bnez	a3,80001fd4 <atol+0x38>
    80002014:	00000513          	li	a0,0
    80002018:	00008067          	ret
    8000201c:	0017c683          	lbu	a3,1(a5)
    80002020:	00100593          	li	a1,1
    80002024:	00178793          	addi	a5,a5,1
    80002028:	fa0696e3          	bnez	a3,80001fd4 <atol+0x38>
    8000202c:	00000513          	li	a0,0
    80002030:	fe9ff06f          	j	80002018 <atol+0x7c>

0000000080002034 <memcmp>:
    80002034:	479d                	li	a5,7
    80002036:	02c7f063          	bgeu	a5,a2,80002056 <memcmp+0x22>
    8000203a:	00b567b3          	or	a5,a0,a1
    8000203e:	8b9d                	andi	a5,a5,7
    80002040:	469d                	li	a3,7
    80002042:	ef9d                	bnez	a5,80002080 <memcmp+0x4c>
    80002044:	6118                	ld	a4,0(a0)
    80002046:	619c                	ld	a5,0(a1)
    80002048:	02f71c63          	bne	a4,a5,80002080 <memcmp+0x4c>
    8000204c:	1661                	addi	a2,a2,-8
    8000204e:	0521                	addi	a0,a0,8
    80002050:	05a1                	addi	a1,a1,8
    80002052:	fec6e9e3          	bltu	a3,a2,80002044 <memcmp+0x10>
    80002056:	fff60693          	addi	a3,a2,-1
    8000205a:	c20d                	beqz	a2,8000207c <memcmp+0x48>
    8000205c:	0685                	addi	a3,a3,1
    8000205e:	96ae                	add	a3,a3,a1
    80002060:	a019                	j	80002066 <memcmp+0x32>
    80002062:	00d58d63          	beq	a1,a3,8000207c <memcmp+0x48>
    80002066:	00054783          	lbu	a5,0(a0)
    8000206a:	0005c703          	lbu	a4,0(a1)
    8000206e:	0505                	addi	a0,a0,1
    80002070:	0585                	addi	a1,a1,1
    80002072:	fee788e3          	beq	a5,a4,80002062 <memcmp+0x2e>
    80002076:	40e7853b          	subw	a0,a5,a4
    8000207a:	8082                	ret
    8000207c:	4501                	li	a0,0
    8000207e:	8082                	ret
    80002080:	fff60693          	addi	a3,a2,-1
    80002084:	bfe1                	j	8000205c <memcmp+0x28>

Disassembly of section .text.startup:

0000000080002088 <main>:
    80002088:	eb010113          	addi	sp,sp,-336
    8000208c:	02000893          	li	a7,32
    80002090:	01113023          	sd	a7,0(sp)
    80002094:	01100893          	li	a7,17
    80002098:	05113023          	sd	a7,64(sp)
    8000209c:	06500893          	li	a7,101
    800020a0:	14113423          	sd	ra,328(sp)
    800020a4:	10010713          	addi	a4,sp,256
    800020a8:	0c010693          	addi	a3,sp,192
    800020ac:	08010613          	addi	a2,sp,128
    800020b0:	04010593          	addi	a1,sp,64
    800020b4:	00010513          	mv	a0,sp
    800020b8:	09113023          	sd	a7,128(sp)
    800020bc:	10000813          	li	a6,256
    800020c0:	03800893          	li	a7,56
    800020c4:	0c800793          	li	a5,200
    800020c8:	00013423          	sd	zero,8(sp)
    800020cc:	00013823          	sd	zero,16(sp)
    800020d0:	00013c23          	sd	zero,24(sp)
    800020d4:	02013023          	sd	zero,32(sp)
    800020d8:	02013423          	sd	zero,40(sp)
    800020dc:	02013823          	sd	zero,48(sp)
    800020e0:	02013c23          	sd	zero,56(sp)
    800020e4:	04013423          	sd	zero,72(sp)
    800020e8:	04013823          	sd	zero,80(sp)
    800020ec:	04013c23          	sd	zero,88(sp)
    800020f0:	06013023          	sd	zero,96(sp)
    800020f4:	06013423          	sd	zero,104(sp)
    800020f8:	06013823          	sd	zero,112(sp)
    800020fc:	06013c23          	sd	zero,120(sp)
    80002100:	08013423          	sd	zero,136(sp)
    80002104:	08013823          	sd	zero,144(sp)
    80002108:	08013c23          	sd	zero,152(sp)
    8000210c:	0a013023          	sd	zero,160(sp)
    80002110:	0a013423          	sd	zero,168(sp)
    80002114:	0a013823          	sd	zero,176(sp)
    80002118:	0a013c23          	sd	zero,184(sp)
    8000211c:	0c013423          	sd	zero,200(sp)
    80002120:	0c013823          	sd	zero,208(sp)
    80002124:	0c013c23          	sd	zero,216(sp)
    80002128:	0e013023          	sd	zero,224(sp)
    8000212c:	0e013423          	sd	zero,232(sp)
    80002130:	0e013823          	sd	zero,240(sp)
    80002134:	0e013c23          	sd	zero,248(sp)
    80002138:	0d113023          	sd	a7,192(sp)
    8000213c:	d78ff0ef          	jal	ra,800016b4 <rsa2048_v1_5_sign>
    80002140:	11813703          	ld	a4,280(sp)
    80002144:	11013683          	ld	a3,272(sp)
    80002148:	10813603          	ld	a2,264(sp)
    8000214c:	10013583          	ld	a1,256(sp)
    80002150:	00000517          	auipc	a0,0x0
    80002154:	04050513          	addi	a0,a0,64 # 80002190 <main+0x108>
    80002158:	b99ff0ef          	jal	ra,80001cf0 <printf>
    8000215c:	14813083          	ld	ra,328(sp)
    80002160:	00000513          	li	a0,0
    80002164:	15010113          	addi	sp,sp,336
    80002168:	00008067          	ret
    8000216c:	ff010113          	addi	sp,sp,-16
    80002170:	00000517          	auipc	a0,0x0
    80002174:	05850513          	addi	a0,a0,88 # 800021c8 <main+0x140>
    80002178:	00113423          	sd	ra,8(sp)
    8000217c:	a95ff0ef          	jal	ra,80001c10 <printstr>
    80002180:	00813083          	ld	ra,8(sp)
    80002184:	fff00513          	li	a0,-1
    80002188:	01010113          	addi	sp,sp,16
    8000218c:	00008067          	ret
